target datalayout = "e-m:e-p270:32:32-p271:32:32-p272:64:64-i64:64-i128:128-f80:128-n8:16:32:64-S128"
target triple = "x86_64-pc-linux-gnu"

%struct.jit_State = type { %struct.GCtrace, ptr, ptr, ptr, ptr, ptr, ptr, i32, i32, i32, i8, i8, %struct.IRType1, i8, %struct.FoldState, ptr, i32, i32, i32, i32, i32, i32, i32, [1 x i32], [5 x %union.TValue], [3 x %union.TValue], ptr, i32, i32, i32, i32, ptr, ptr, i32, i32, i8, ptr, i32, i32, i16, [101 x i16], [258 x i32], [15 x i32], [16 x ptr], [64 x %struct.HotPenalty], i32, [16 x %struct.BPropEntry], i32, %struct.ScEvEntry, ptr, i32, i32, i32, ptr, i32, i32, ptr, ptr, ptr, i64, i64, %union.TValue, ptr, i32, i32 }
%struct.GCtrace = type { %struct.GCRef, i8, i8, i16, i32, i32, %struct.GCRef, ptr, i32, i32, ptr, ptr, %struct.GCRef, %struct.MRef, i32, i32, ptr, i32, i16, i16, i16, i16, i16, i16, i16, i8, i8, i8, i8 }
%struct.GCRef = type { i64 }
%struct.MRef = type { i64 }
%struct.IRType1 = type { i8 }
%struct.FoldState = type { %union.IRIns, [2 x %union.IRIns], [2 x %union.IRIns] }
%union.IRIns = type { %struct.GCRef }
%struct.HotPenalty = type { %struct.MRef, i16, i16 }
%struct.BPropEntry = type { i16, i16, i32 }
%struct.ScEvEntry = type { %struct.MRef, i16, i16, i16, i16, %struct.IRType1, i8 }
%union.TValue = type { i64 }

; Function Attrs: nounwind uwtable
define internal void @rec_loop_jit(ptr noundef %0, i32 noundef %1, i32 noundef %2) #0 {
  %4 = alloca ptr, align 8
  %5 = alloca i32, align 4
  %6 = alloca i32, align 4
  store ptr %0, ptr %4, align 8, !tbaa !4
  store i32 %1, ptr %5, align 4, !tbaa !9
  store i32 %2, ptr %6, align 4, !tbaa !9
  %7 = load ptr, ptr %4, align 8, !tbaa !4
  %8 = getelementptr inbounds nuw %struct.jit_State, ptr %7, i32 0, i32 50
  %9 = load i32, ptr %8, align 8, !tbaa !67
  %10 = icmp eq i32 %9, 0
  br i1 %10, label %11, label %18

11:                                               ; preds = %3
  %12 = load ptr, ptr %4, align 8, !tbaa !4
  %13 = getelementptr inbounds nuw %struct.jit_State, ptr %12, i32 0, i32 51
  %14 = load i32, ptr %13, align 4, !tbaa !68
  %15 = icmp eq i32 %14, 0
  br i1 %15, label %16, label %18

16:                                               ; preds = %11
  %17 = load ptr, ptr %4, align 8, !tbaa !4
  call void @lj_trace_err(ptr noundef %17, i32 noundef 9) #10
  unreachable

18:                                               ; preds = %11, %3
  %19 = load i32, ptr %6, align 4, !tbaa !9
  %20 = icmp ne i32 %19, 0
  br i1 %20, label %21, label %51

21:                                               ; preds = %18
  %22 = load ptr, ptr %4, align 8, !tbaa !4
  %23 = getelementptr inbounds nuw %struct.jit_State, ptr %22, i32 0, i32 18
  store i32 0, ptr %23, align 8, !tbaa !162
  %24 = load ptr, ptr %4, align 8, !tbaa !4
  %25 = getelementptr inbounds nuw %struct.jit_State, ptr %24, i32 0, i32 3
  %26 = load ptr, ptr %25, align 8, !tbaa !66
  %27 = load ptr, ptr %4, align 8, !tbaa !4
  %28 = getelementptr inbounds nuw %struct.jit_State, ptr %27, i32 0, i32 49
  %29 = load ptr, ptr %28, align 8, !tbaa !80
  %30 = icmp eq ptr %26, %29
  br i1 %30, label %31, label %47

31:                                               ; preds = %21
  %32 = load ptr, ptr %4, align 8, !tbaa !4
  %33 = getelementptr inbounds nuw %struct.jit_State, ptr %32, i32 0, i32 21
  %34 = load i32, ptr %33, align 4, !tbaa !37
  %35 = load ptr, ptr %4, align 8, !tbaa !4
  %36 = getelementptr inbounds nuw %struct.jit_State, ptr %35, i32 0, i32 22
  %37 = load i32, ptr %36, align 8, !tbaa !38
  %38 = add nsw i32 %34, %37
  %39 = icmp eq i32 %38, 0
  br i1 %39, label %40, label %47

40:                                               ; preds = %31
  %41 = load ptr, ptr %4, align 8, !tbaa !4
  %42 = load ptr, ptr %4, align 8, !tbaa !4
  %43 = getelementptr inbounds nuw %struct.jit_State, ptr %42, i32 0, i32 0
  %44 = getelementptr inbounds nuw %struct.GCtrace, ptr %43, i32 0, i32 20
  %45 = load i16, ptr %44, align 8, !tbaa !36
  %46 = zext i16 %45 to i32
  call void @lj_record_stop(ptr noundef %41, i32 noundef 2, i32 noundef %46)
  br label %50

47:                                               ; preds = %31, %21
  %48 = load ptr, ptr %4, align 8, !tbaa !4
  %49 = load i32, ptr %5, align 4, !tbaa !9
  call void @lj_record_stop(ptr noundef %48, i32 noundef 1, i32 noundef %49)
  br label %50

50:                                               ; preds = %47, %40
  br label %51

51:                                               ; preds = %50, %18
  br label %52

52:                                               ; preds = %51
  ret void
}