; Function Attrs: nounwind uwtable
define internal fastcc void @rec_loop_jit(ptr noundef %0, i32 noundef %1, i32 noundef range(i32 0, 3) %2) unnamed_addr #0 {
  %4 = getelementptr inbounds nuw i8, ptr %0, i64 3016
  %5 = load i32, ptr %4, align 8, !tbaa !62
  %6 = icmp eq i32 %5, 0
  br i1 %6, label %7, label %12

7:                                                ; preds = %3
  %8 = getelementptr inbounds nuw i8, ptr %0, i64 3020
  %9 = load i32, ptr %8, align 4, !tbaa !63
  %10 = icmp eq i32 %9, 0
  br i1 %10, label %11, label %12

11:                                               ; preds = %7
  tail call void @lj_trace_err(ptr noundef nonnull %0, i32 noundef 9) #9
  unreachable

12:                                               ; preds = %7, %3
  %.not = icmp eq i32 %2, 0
  br i1 %.not, label %32, label %13

13:                                               ; preds = %12
  %14 = getelementptr inbounds nuw i8, ptr %0, i64 240
  store i32 0, ptr %14, align 8, !tbaa !169
  %15 = getelementptr inbounds nuw i8, ptr %0, i64 136
  %16 = load ptr, ptr %15, align 8, !tbaa !61
  %17 = getelementptr inbounds nuw i8, ptr %0, i64 3008
  %18 = load ptr, ptr %17, align 8, !tbaa !77
  %19 = icmp eq ptr %16, %18
  br i1 %19, label %20, label %31

20:                                               ; preds = %13
  %21 = getelementptr inbounds nuw i8, ptr %0, i64 252
  %22 = load i32, ptr %21, align 4, !tbaa !31
  %23 = getelementptr inbounds nuw i8, ptr %0, i64 256
  %24 = load i32, ptr %23, align 8, !tbaa !32
  %25 = sub i32 0, %24
  %26 = icmp eq i32 %22, %25
  br i1 %26, label %27, label %31

27:                                               ; preds = %20
  %28 = getelementptr inbounds nuw i8, ptr %0, i64 104
  %29 = load i16, ptr %28, align 8, !tbaa !30
  %30 = zext i16 %29 to i32
  tail call void @lj_record_stop(ptr noundef nonnull %0, i32 noundef 2, i32 noundef %30)
  br label %32

31:                                               ; preds = %20, %13
  tail call void @lj_record_stop(ptr noundef nonnull %0, i32 noundef 1, i32 noundef %1)
  br label %32

32:                                               ; preds = %12, %31, %27
  ret void
}